; Function Attrs: nofree norecurse nosync nounwind memory(argmem: readwrite) uwtable
define internal void @put_rv40_qpel8_mc13_c(ptr noundef writeonly captures(none) %0, ptr noundef readonly captures(none) %1, i64 noundef %2) #3 {
  %4 = alloca [104 x i8], align 16
  call void @llvm.lifetime.start.p0(i64 104, ptr nonnull %4) #5
  %5 = getelementptr inbounds nuw i8, ptr %4, i64 16
  %.neg = mul i64 %2, -2
  %6 = getelementptr inbounds i8, ptr %1, i64 %.neg
  %7 = trunc i64 %2 to i32
  call fastcc void @put_rv40_qpel8_h_lowpass(ptr noundef nonnull %4, ptr noundef %6, i32 noundef 8, i32 noundef %7, i32 noundef 13, i32 noundef 52, i32 noundef 20, i32 noundef 6)
  call fastcc void @put_rv40_qpel8_v_lowpass(ptr noundef %0, ptr noundef nonnull %5, i32 noundef %7, i32 noundef 8, i32 noundef 20, i32 noundef 52, i32 noundef 6)
  call void @llvm.lifetime.end.p0(i64 104, ptr nonnull %4) #5
  ret void
}